target datalayout = "e-m:e-p270:32:32-p271:32:32-p272:64:64-i64:64-i128:128-f80:128-n8:16:32:64-S128"
target triple = "x86_64-pc-linux-gnu"

; Function Attrs: inlinehint nounwind willreturn memory(read) uwtable
define available_externally i32 @tolower(i32 noundef %0) #6 {
  %2 = alloca i32, align 4
  store i32 %0, ptr %2, align 4, !tbaa !50
  %3 = load i32, ptr %2, align 4, !tbaa !50
  %4 = icmp sge i32 %3, -128
  br i1 %4, label %5, label %15

5:                                                ; preds = %1
  %6 = load i32, ptr %2, align 4, !tbaa !50
  %7 = icmp slt i32 %6, 256
  br i1 %7, label %8, label %15

8:                                                ; preds = %5
  %9 = call ptr @__ctype_tolower_loc() #10
  %10 = load ptr, ptr %9, align 8, !tbaa !62
  %11 = load i32, ptr %2, align 4, !tbaa !50
  %12 = sext i32 %11 to i64
  %13 = getelementptr inbounds i32, ptr %10, i64 %12
  %14 = load i32, ptr %13, align 4, !tbaa !50
  br label %17

15:                                               ; preds = %5, %1
  %16 = load i32, ptr %2, align 4, !tbaa !50
  br label %17

17:                                               ; preds = %15, %8
  %18 = phi i32 [ %14, %8 ], [ %16, %15 ]
  ret i32 %18
}

; Function Attrs: nounwind uwtable
define dso_local i32 @keymatch(ptr noundef %0, ptr noundef %1, i32 noundef %2) #0 {
  %4 = alloca i32, align 4
  %5 = alloca ptr, align 8
  %6 = alloca ptr, align 8
  %7 = alloca i32, align 4
  %8 = alloca i32, align 4
  %9 = alloca i32, align 4
  %10 = alloca i32, align 4
  %11 = alloca i32, align 4
  %12 = alloca i32, align 4
  %13 = alloca i32, align 4
  %14 = alloca i32, align 4
  store ptr %0, ptr %5, align 8, !tbaa !57
  store ptr %1, ptr %6, align 8, !tbaa !57
  store i32 %2, ptr %7, align 4, !tbaa !50
  call void @llvm.lifetime.start.p0(i64 4, ptr %8) #8
  call void @llvm.lifetime.start.p0(i64 4, ptr %9) #8
  call void @llvm.lifetime.start.p0(i64 4, ptr %10) #8
  store i32 0, ptr %10, align 4, !tbaa !50
  br label %15

15:                                               ; preds = %70, %3
  %16 = load ptr, ptr %5, align 8, !tbaa !57
  %17 = getelementptr inbounds nuw i8, ptr %16, i32 1
  store ptr %17, ptr %5, align 8, !tbaa !57
  %18 = load i8, ptr %16, align 1, !tbaa !58
  %19 = sext i8 %18 to i32
  store i32 %19, ptr %8, align 4, !tbaa !50
  %20 = icmp ne i32 %19, 0
  br i1 %20, label %21, label %73

21:                                               ; preds = %15
  %22 = load ptr, ptr %6, align 8, !tbaa !57
  %23 = getelementptr inbounds nuw i8, ptr %22, i32 1
  store ptr %23, ptr %6, align 8, !tbaa !57
  %24 = load i8, ptr %22, align 1, !tbaa !58
  %25 = sext i8 %24 to i32
  store i32 %25, ptr %9, align 4, !tbaa !50
  %26 = icmp eq i32 %25, 0
  br i1 %26, label %27, label %28

27:                                               ; preds = %21
  store i32 0, ptr %4, align 4
  store i32 1, ptr %11, align 4
  br label %79

28:                                               ; preds = %21
  %29 = call ptr @__ctype_b_loc() #10
  %30 = load ptr, ptr %29, align 8, !tbaa !59
  %31 = load i32, ptr %8, align 4, !tbaa !50
  %32 = sext i32 %31 to i64
  %33 = getelementptr inbounds i16, ptr %30, i64 %32
  %34 = load i16, ptr %33, align 2, !tbaa !61
  %35 = zext i16 %34 to i32
  %36 = and i32 %35, 256
  %37 = icmp ne i32 %36, 0
  br i1 %37, label %38, label %65

38:                                               ; preds = %28
  call void @llvm.lifetime.start.p0(i64 4, ptr %12) #8
  %39 = load i32, ptr %8, align 4, !tbaa !50
  %40 = call i1 @llvm.is.constant.i32(i32 %39)
  br i1 %40, label %41, label %59

41:                                               ; preds = %38
  call void @llvm.lifetime.start.p0(i64 4, ptr %13) #8
  %42 = load i32, ptr %8, align 4, !tbaa !50
  store i32 %42, ptr %13, align 4, !tbaa !50
  %43 = load i32, ptr %13, align 4, !tbaa !50
  %44 = icmp slt i32 %43, -128
  br i1 %44, label %48, label %45

45:                                               ; preds = %41
  %46 = load i32, ptr %13, align 4, !tbaa !50
  %47 = icmp sgt i32 %46, 255
  br i1 %47, label %48, label %50

48:                                               ; preds = %45, %41
  %49 = load i32, ptr %13, align 4, !tbaa !50
  br label %57

50:                                               ; preds = %45
  %51 = call ptr @__ctype_tolower_loc() #10
  %52 = load ptr, ptr %51, align 8, !tbaa !62
  %53 = load i32, ptr %13, align 4, !tbaa !50
  %54 = sext i32 %53 to i64
  %55 = getelementptr inbounds i32, ptr %52, i64 %54
  %56 = load i32, ptr %55, align 4, !tbaa !50
  br label %57

57:                                               ; preds = %50, %48
  %58 = phi i32 [ %49, %48 ], [ %56, %50 ]
  store i32 %58, ptr %12, align 4, !tbaa !50
  call void @llvm.lifetime.end.p0(i64 4, ptr %13) #8
  br label %62

59:                                               ; preds = %38
  %60 = load i32, ptr %8, align 4, !tbaa !50
  %61 = call i32 @tolower(i32 noundef %60) #11
  store i32 %61, ptr %12, align 4, !tbaa !50
  br label %62

62:                                               ; preds = %59, %57
  %63 = load i32, ptr %12, align 4, !tbaa !50
  store i32 %63, ptr %14, align 4, !tbaa !50
  call void @llvm.lifetime.end.p0(i64 4, ptr %12) #8
  %64 = load i32, ptr %14, align 4, !tbaa !50
  store i32 %64, ptr %8, align 4, !tbaa !50
  br label %65

65:                                               ; preds = %62, %28
  %66 = load i32, ptr %8, align 4, !tbaa !50
  %67 = load i32, ptr %9, align 4, !tbaa !50
  %68 = icmp ne i32 %66, %67
  br i1 %68, label %69, label %70

69:                                               ; preds = %65
  store i32 0, ptr %4, align 4
  store i32 1, ptr %11, align 4
  br label %79

70:                                               ; preds = %65
  %71 = load i32, ptr %10, align 4, !tbaa !50
  %72 = add nsw i32 %71, 1
  store i32 %72, ptr %10, align 4, !tbaa !50
  br label %15, !llvm.loop !63

73:                                               ; preds = %15
  %74 = load i32, ptr %10, align 4, !tbaa !50
  %75 = load i32, ptr %7, align 4, !tbaa !50
  %76 = icmp slt i32 %74, %75
  br i1 %76, label %77, label %78

77:                                               ; preds = %73
  store i32 0, ptr %4, align 4
  store i32 1, ptr %11, align 4
  br label %79

78:                                               ; preds = %73
  store i32 1, ptr %4, align 4
  store i32 1, ptr %11, align 4
  br label %79

79:                                               ; preds = %78, %77, %69, %27
  call void @llvm.lifetime.end.p0(i64 4, ptr %10) #8
  call void @llvm.lifetime.end.p0(i64 4, ptr %9) #8
  call void @llvm.lifetime.end.p0(i64 4, ptr %8) #8
  %80 = load i32, ptr %4, align 4
  ret i32 %80
}