; Function Attrs: nofree nosync nounwind memory(read, inaccessiblemem: none) uwtable
define dso_local range(i32 0, 2) i32 @keymatch(ptr noundef readonly captures(none) %0, ptr noundef readonly captures(none) %1, i32 noundef %2) local_unnamed_addr #3 {
  %4 = load i8, ptr %0, align 1, !tbaa !52
  %.not28 = icmp eq i8 %4, 0
  br i1 %.not28, label %._crit_edge, label %.lr.ph

.lr.ph:                                           ; preds = %3, %25
  %5 = phi i8 [ %27, %25 ], [ %4, %3 ]
  %.pn = phi ptr [ %6, %25 ], [ %0, %3 ]
  %.02030 = phi i32 [ %26, %25 ], [ 0, %3 ]
  %.02129 = phi ptr [ %7, %25 ], [ %1, %3 ]
  %6 = getelementptr inbounds nuw i8, ptr %.pn, i64 1
  %7 = getelementptr inbounds nuw i8, ptr %.02129, i64 1
  %8 = load i8, ptr %.02129, align 1, !tbaa !52
  %9 = sext i8 %8 to i32
  %10 = icmp eq i8 %8, 0
  br i1 %10, label %.loopexit, label %11

11:                                               ; preds = %.lr.ph
  %12 = sext i8 %5 to i32
  %13 = tail call ptr @__ctype_b_loc() #12
  %14 = load ptr, ptr %13, align 8, !tbaa !53
  %15 = sext i8 %5 to i64
  %16 = getelementptr inbounds i16, ptr %14, i64 %15
  %17 = load i16, ptr %16, align 2, !tbaa !55
  %18 = and i16 %17, 256
  %.not25 = icmp eq i16 %18, 0
  br i1 %.not25, label %24, label %19

19:                                               ; preds = %11
  %20 = tail call ptr @__ctype_tolower_loc() #12
  %21 = load ptr, ptr %20, align 8, !tbaa !56
  %22 = getelementptr inbounds i32, ptr %21, i64 %15
  %23 = load i32, ptr %22, align 4, !tbaa !57
  br label %24

24:                                               ; preds = %19, %11
  %.022 = phi i32 [ %12, %11 ], [ %23, %19 ]
  %.not26 = icmp eq i32 %.022, %9
  br i1 %.not26, label %25, label %.loopexit

25:                                               ; preds = %24
  %26 = add nuw nsw i32 %.02030, 1
  %27 = load i8, ptr %6, align 1, !tbaa !52
  %.not = icmp eq i8 %27, 0
  br i1 %.not, label %._crit_edge, label %.lr.ph, !llvm.loop !58

._crit_edge:                                      ; preds = %25, %3
  %.020.lcssa = phi i32 [ 0, %3 ], [ %26, %25 ]
  %28 = icmp sge i32 %.020.lcssa, %2
  %. = zext i1 %28 to i32
  br label %.loopexit

.loopexit:                                        ; preds = %24, %.lr.ph, %._crit_edge
  %.0 = phi i32 [ %., %._crit_edge ], [ 0, %.lr.ph ], [ 0, %24 ]
  ret i32 %.0
}